target datalayout = "e-m:e-p270:32:32-p271:32:32-p272:64:64-i64:64-i128:128-f80:128-n8:16:32:64-S128"
target triple = "x86_64-pc-linux-gnu"

%struct.hwloc_topology = type { i32, i32, i32, ptr, ptr, i64, [20 x i32], [20 x i32], i64, i64, i32, ptr, i64, ptr, i64, [6 x %struct.hwloc_special_level_s], ptr, ptr, %struct.hwloc_binding_hooks, %struct.hwloc_topology_support, %struct.hwloc_infos_s, ptr, ptr, i32, ptr, ptr, i32, i32, ptr, i32, i32, ptr, i32, i32, i32, [5 x float], i32, ptr, ptr, i32, i32, ptr, i32, %struct.hwloc_numanode_attr_s, i32, i32, ptr, i64, i32, ptr, ptr, ptr }
%struct.hwloc_special_level_s = type { i32, ptr, ptr, ptr }
%struct.hwloc_binding_hooks = type { ptr, ptr, ptr, ptr, ptr, ptr, ptr, ptr, ptr, ptr, ptr, ptr, ptr, ptr, ptr, ptr, ptr, ptr, ptr, ptr, ptr, ptr, ptr, ptr }
%struct.hwloc_topology_support = type { ptr, ptr, ptr, ptr }
%struct.hwloc_infos_s = type { ptr, i32, i32 }
%struct.hwloc_numanode_attr_s = type { i64, i32, ptr }

; Function Attrs: inlinehint nounwind uwtable
define internal i32 @hwloc__obj_type_is_special(i32 noundef %0) #4 {
  %2 = alloca i32, align 4
  store i32 %0, ptr %2, align 4, !tbaa !33
  %3 = load i32, ptr %2, align 4, !tbaa !33
  %4 = icmp uge i32 %3, 16
  br i1 %4, label %5, label %8

5:                                                ; preds = %1
  %6 = load i32, ptr %2, align 4, !tbaa !33
  %7 = icmp ule i32 %6, 19
  br label %8

8:                                                ; preds = %5, %1
  %9 = phi i1 [ false, %1 ], [ %7, %5 ]
  %10 = zext i1 %9 to i32
  ret i32 %10
}

; Function Attrs: nounwind uwtable
define internal i32 @hwloc__topology_set_type_filter(ptr noundef %0, i32 noundef %1, i32 noundef %2) #0 {
  %4 = alloca i32, align 4
  %5 = alloca ptr, align 8
  %6 = alloca i32, align 4
  %7 = alloca i32, align 4
  store ptr %0, ptr %5, align 8, !tbaa !3
  store i32 %1, ptr %6, align 4, !tbaa !33
  store i32 %2, ptr %7, align 4, !tbaa !33
  %8 = load i32, ptr %6, align 4, !tbaa !33
  %9 = icmp eq i32 %8, 4
  br i1 %9, label %16, label %10

10:                                               ; preds = %3
  %11 = load i32, ptr %6, align 4, !tbaa !33
  %12 = icmp eq i32 %11, 14
  br i1 %12, label %16, label %13

13:                                               ; preds = %10
  %14 = load i32, ptr %6, align 4, !tbaa !33
  %15 = icmp eq i32 %14, 0
  br i1 %15, label %16, label %22

16:                                               ; preds = %13, %10, %3
  %17 = load i32, ptr %7, align 4, !tbaa !33
  %18 = icmp ne i32 %17, 0
  br i1 %18, label %19, label %21

19:                                               ; preds = %16
  %20 = call ptr @__errno_location() #16
  store i32 22, ptr %20, align 4, !tbaa !33
  store i32 -1, ptr %4, align 4
  br label %58

21:                                               ; preds = %16
  br label %43

22:                                               ; preds = %13
  %23 = load i32, ptr %6, align 4, !tbaa !33
  %24 = call i32 @hwloc__obj_type_is_special(i32 noundef %23)
  %25 = icmp ne i32 %24, 0
  br i1 %25, label %26, label %32

26:                                               ; preds = %22
  %27 = load i32, ptr %7, align 4, !tbaa !33
  %28 = icmp eq i32 %27, 2
  br i1 %28, label %29, label %31

29:                                               ; preds = %26
  %30 = call ptr @__errno_location() #16
  store i32 22, ptr %30, align 4, !tbaa !33
  store i32 -1, ptr %4, align 4
  br label %58

31:                                               ; preds = %26
  br label %42

32:                                               ; preds = %22
  %33 = load i32, ptr %6, align 4, !tbaa !33
  %34 = icmp eq i32 %33, 13
  br i1 %34, label %35, label %41

35:                                               ; preds = %32
  %36 = load i32, ptr %7, align 4, !tbaa !33
  %37 = icmp eq i32 %36, 0
  br i1 %37, label %38, label %40

38:                                               ; preds = %35
  %39 = call ptr @__errno_location() #16
  store i32 22, ptr %39, align 4, !tbaa !33
  store i32 -1, ptr %4, align 4
  br label %58

40:                                               ; preds = %35
  br label %41

41:                                               ; preds = %40, %32
  br label %42

42:                                               ; preds = %41, %31
  br label %43

43:                                               ; preds = %42, %21
  %44 = load i32, ptr %6, align 4, !tbaa !33
  %45 = call i32 @hwloc__obj_type_is_special(i32 noundef %44)
  %46 = icmp ne i32 %45, 0
  br i1 %46, label %51, label %47

47:                                               ; preds = %43
  %48 = load i32, ptr %7, align 4, !tbaa !33
  %49 = icmp eq i32 %48, 3
  br i1 %49, label %50, label %51

50:                                               ; preds = %47
  store i32 0, ptr %7, align 4, !tbaa !33
  br label %51

51:                                               ; preds = %50, %47, %43
  %52 = load i32, ptr %7, align 4, !tbaa !33
  %53 = load ptr, ptr %5, align 8, !tbaa !3
  %54 = getelementptr inbounds nuw %struct.hwloc_topology, ptr %53, i32 0, i32 7
  %55 = load i32, ptr %6, align 4, !tbaa !33
  %56 = zext i32 %55 to i64
  %57 = getelementptr inbounds nuw [20 x i32], ptr %54, i64 0, i64 %56
  store i32 %52, ptr %57, align 4, !tbaa !33
  store i32 0, ptr %4, align 4
  br label %58

58:                                               ; preds = %51, %38, %29, %19
  %59 = load i32, ptr %4, align 4
  ret i32 %59
}

; Function Attrs: nounwind uwtable
define i32 @hwloc_topology_set_cache_types_filter(ptr noundef %0, i32 noundef %1) #0 {
  %3 = alloca i32, align 4
  %4 = alloca ptr, align 8
  %5 = alloca i32, align 4
  %6 = alloca i32, align 4
  %7 = alloca i32, align 4
  store ptr %0, ptr %4, align 8, !tbaa !3
  store i32 %1, ptr %5, align 4, !tbaa !33
  call void @llvm.lifetime.start.p0(i64 4, ptr %6) #14
  %8 = load ptr, ptr %4, align 8, !tbaa !3
  %9 = getelementptr inbounds nuw %struct.hwloc_topology, ptr %8, i32 0, i32 8
  %10 = load i64, ptr %9, align 8, !tbaa !86
  %11 = and i64 %10, 8
  %12 = icmp ne i64 %11, 0
  br i1 %12, label %15, label %13

13:                                               ; preds = %2
  %14 = call ptr @__errno_location() #16
  store i32 16, ptr %14, align 4, !tbaa !33
  store i32 -1, ptr %3, align 4
  store i32 1, ptr %7, align 4
  br label %28

15:                                               ; preds = %2
  store i32 5, ptr %6, align 4, !tbaa !33
  br label %16

16:                                               ; preds = %24, %15
  %17 = load i32, ptr %6, align 4, !tbaa !33
  %18 = icmp ule i32 %17, 12
  br i1 %18, label %19, label %27

19:                                               ; preds = %16
  %20 = load ptr, ptr %4, align 8, !tbaa !3
  %21 = load i32, ptr %6, align 4, !tbaa !33
  %22 = load i32, ptr %5, align 4, !tbaa !33
  %23 = call i32 @hwloc__topology_set_type_filter(ptr noundef %20, i32 noundef %21, i32 noundef %22)
  br label %24

24:                                               ; preds = %19
  %25 = load i32, ptr %6, align 4, !tbaa !33
  %26 = add i32 %25, 1
  store i32 %26, ptr %6, align 4, !tbaa !33
  br label %16, !llvm.loop !197

27:                                               ; preds = %16
  store i32 0, ptr %3, align 4
  store i32 1, ptr %7, align 4
  br label %28

28:                                               ; preds = %27, %13
  call void @llvm.lifetime.end.p0(i64 4, ptr %6) #14
  %29 = load i32, ptr %3, align 4
  ret i32 %29
}