; Function Attrs: nofree nosync nounwind memory(write, argmem: readwrite, inaccessiblemem: none) uwtable
define range(i32 -1, 1) i32 @hwloc_topology_set_cache_types_filter(ptr noundef captures(none) %0, i32 noundef %1) local_unnamed_addr #20 {
  %3 = getelementptr inbounds nuw i8, ptr %0, i64 200
  %4 = load i64, ptr %3, align 8, !tbaa !90
  %5 = and i64 %4, 8
  %.not = icmp eq i64 %5, 0
  br i1 %.not, label %9, label %.preheader

.preheader:                                       ; preds = %2
  %.not21.i = icmp eq i32 %1, 0
  %6 = icmp eq i32 %1, 3
  %spec.store.select.i = select i1 %6, i32 0, i32 %1
  %7 = getelementptr inbounds nuw i8, ptr %0, i64 120
  br i1 %.not21.i, label %hwloc__topology_set_type_filter.exit.us, label %.preheader.split

hwloc__topology_set_type_filter.exit.us:          ; preds = %.preheader, %hwloc__topology_set_type_filter.exit.us
  %indvars.iv11 = phi i64 [ %indvars.iv.next12, %hwloc__topology_set_type_filter.exit.us ], [ 5, %.preheader ]
  %8 = getelementptr inbounds nuw [20 x i32], ptr %7, i64 0, i64 %indvars.iv11
  store i32 %spec.store.select.i, ptr %8, align 4, !tbaa !31
  %indvars.iv.next12 = add nuw nsw i64 %indvars.iv11, 1
  %exitcond14.not = icmp eq i64 %indvars.iv.next12, 13
  br i1 %exitcond14.not, label %.loopexit, label %hwloc__topology_set_type_filter.exit.us, !llvm.loop !191

9:                                                ; preds = %2
  %10 = tail call ptr @__errno_location() #37
  store i32 16, ptr %10, align 4, !tbaa !31
  br label %.loopexit

.preheader.split:                                 ; preds = %.preheader, %hwloc__topology_set_type_filter.exit
  %indvars.iv = phi i64 [ %indvars.iv.next, %hwloc__topology_set_type_filter.exit ], [ 5, %.preheader ]
  %11 = and i64 %indvars.iv, 11
  %.not8 = icmp eq i64 %11, 0
  br i1 %.not8, label %12, label %14

12:                                               ; preds = %.preheader.split
  %13 = tail call ptr @__errno_location() #37
  store i32 22, ptr %13, align 4, !tbaa !31
  br label %hwloc__topology_set_type_filter.exit

14:                                               ; preds = %.preheader.split
  %15 = getelementptr inbounds nuw [20 x i32], ptr %7, i64 0, i64 %indvars.iv
  store i32 %spec.store.select.i, ptr %15, align 4, !tbaa !31
  br label %hwloc__topology_set_type_filter.exit

hwloc__topology_set_type_filter.exit:             ; preds = %12, %14
  %indvars.iv.next = add nuw nsw i64 %indvars.iv, 1
  %exitcond.not = icmp eq i64 %indvars.iv.next, 13
  br i1 %exitcond.not, label %.loopexit, label %.preheader.split, !llvm.loop !191

.loopexit:                                        ; preds = %hwloc__topology_set_type_filter.exit, %hwloc__topology_set_type_filter.exit.us, %9
  %.06 = phi i32 [ -1, %9 ], [ 0, %hwloc__topology_set_type_filter.exit.us ], [ 0, %hwloc__topology_set_type_filter.exit ]
  ret i32 %.06
}